target datalayout = "e-m:e-p270:32:32-p271:32:32-p272:64:64-i64:64-i128:128-f80:128-n8:16:32:64-S128"
target triple = "x86_64-pc-linux-gnu"

%"class.ncnn::Mat" = type { ptr, ptr, i64, i32, ptr, i32, i32, i32, i32, i32, i64 }

; Function Attrs: mustprogress uwtable
define hidden void @_ZNK4ncnn8ModelBin4loadEiii(ptr dead_on_unwind noalias writable sret(%"class.ncnn::Mat") align 8 %0, ptr noundef nonnull align 8 dereferenceable(8) %1, i32 noundef %2, i32 noundef %3, i32 noundef %4) unnamed_addr #2 align 2 personality ptr @__gxx_personality_v0 {
  %6 = alloca ptr, align 8
  %7 = alloca ptr, align 8
  %8 = alloca ptr, align 8
  %9 = alloca i32, align 4
  %10 = alloca i32, align 4
  %11 = alloca ptr, align 8
  %12 = alloca i32, align 4
  %13 = alloca i32, align 4
  %14 = alloca ptr, align 8
  %15 = alloca i32, align 4
  %16 = alloca i32, align 4
  %17 = alloca ptr, align 8
  %18 = alloca ptr, align 8
  %19 = alloca ptr, align 8
  %20 = alloca ptr, align 8
  %21 = alloca ptr, align 8
  %22 = alloca ptr, align 8
  %23 = alloca ptr, align 8
  %24 = alloca ptr, align 8
  %25 = alloca i32, align 4
  %26 = alloca i32, align 4
  %27 = alloca i32, align 4
  %28 = alloca %"class.ncnn::Mat", align 8
  %29 = alloca ptr, align 8
  %30 = alloca i32, align 4
  %31 = alloca i32, align 4
  store ptr %0, ptr %23, align 8
  store ptr %1, ptr %24, align 8
  store i32 %2, ptr %25, align 4
  store i32 %3, ptr %26, align 4
  store i32 %4, ptr %27, align 4
  %32 = load ptr, ptr %24, align 8
  %33 = load i32, ptr %25, align 4
  %34 = load i32, ptr %26, align 4
  %35 = mul nsw i32 %33, %34
  %36 = load i32, ptr %27, align 4
  %37 = load ptr, ptr %32, align 8
  %38 = getelementptr inbounds ptr, ptr %37, i64 2
  %39 = load ptr, ptr %38, align 8
  call void %39(ptr dead_on_unwind writable sret(%"class.ncnn::Mat") align 8 %28, ptr noundef nonnull align 8 dereferenceable(8) %32, i32 noundef %35, i32 noundef %36)
  store ptr %28, ptr %22, align 8
  %40 = load ptr, ptr %22, align 8
  %41 = load ptr, ptr %40, align 8
  %42 = icmp eq ptr %41, null
  br i1 %42, label %52, label %43

43:                                               ; preds = %5
  store ptr %40, ptr %17, align 8
  %44 = load ptr, ptr %17, align 8
  %45 = getelementptr inbounds nuw %"class.ncnn::Mat", ptr %44, i32 0, i32 10
  %46 = load i64, ptr %45, align 8
  %47 = getelementptr inbounds nuw %"class.ncnn::Mat", ptr %44, i32 0, i32 9
  %48 = load i32, ptr %47, align 8
  %49 = sext i32 %48 to i64
  %50 = mul i64 %46, %49
  %51 = icmp eq i64 %50, 0
  br label %52

52:                                               ; preds = %43, %5
  %53 = phi i1 [ true, %5 ], [ %51, %43 ]
  br label %54

54:                                               ; preds = %52
  br i1 %53, label %55, label %160

55:                                               ; preds = %54
  store ptr %0, ptr %20, align 8
  store ptr %28, ptr %21, align 8
  %56 = load ptr, ptr %20, align 8
  %57 = load ptr, ptr %21, align 8
  %58 = load ptr, ptr %57, align 8
  store ptr %58, ptr %56, align 8
  %59 = getelementptr inbounds nuw %"class.ncnn::Mat", ptr %56, i32 0, i32 1
  %60 = load ptr, ptr %21, align 8
  %61 = getelementptr inbounds nuw %"class.ncnn::Mat", ptr %60, i32 0, i32 1
  %62 = load ptr, ptr %61, align 8
  store ptr %62, ptr %59, align 8
  %63 = getelementptr inbounds nuw %"class.ncnn::Mat", ptr %56, i32 0, i32 2
  %64 = load ptr, ptr %21, align 8
  %65 = getelementptr inbounds nuw %"class.ncnn::Mat", ptr %64, i32 0, i32 2
  %66 = load i64, ptr %65, align 8
  store i64 %66, ptr %63, align 8
  %67 = getelementptr inbounds nuw %"class.ncnn::Mat", ptr %56, i32 0, i32 3
  %68 = load ptr, ptr %21, align 8
  %69 = getelementptr inbounds nuw %"class.ncnn::Mat", ptr %68, i32 0, i32 3
  %70 = load i32, ptr %69, align 8
  store i32 %70, ptr %67, align 8
  %71 = getelementptr inbounds nuw %"class.ncnn::Mat", ptr %56, i32 0, i32 4
  %72 = load ptr, ptr %21, align 8
  %73 = getelementptr inbounds nuw %"class.ncnn::Mat", ptr %72, i32 0, i32 4
  %74 = load ptr, ptr %73, align 8
  store ptr %74, ptr %71, align 8
  %75 = getelementptr inbounds nuw %"class.ncnn::Mat", ptr %56, i32 0, i32 5
  %76 = load ptr, ptr %21, align 8
  %77 = getelementptr inbounds nuw %"class.ncnn::Mat", ptr %76, i32 0, i32 5
  %78 = load i32, ptr %77, align 8
  store i32 %78, ptr %75, align 8
  %79 = getelementptr inbounds nuw %"class.ncnn::Mat", ptr %56, i32 0, i32 6
  %80 = load ptr, ptr %21, align 8
  %81 = getelementptr inbounds nuw %"class.ncnn::Mat", ptr %80, i32 0, i32 6
  %82 = load i32, ptr %81, align 4
  store i32 %82, ptr %79, align 4
  %83 = getelementptr inbounds nuw %"class.ncnn::Mat", ptr %56, i32 0, i32 7
  %84 = load ptr, ptr %21, align 8
  %85 = getelementptr inbounds nuw %"class.ncnn::Mat", ptr %84, i32 0, i32 7
  %86 = load i32, ptr %85, align 8
  store i32 %86, ptr %83, align 8
  %87 = getelementptr inbounds nuw %"class.ncnn::Mat", ptr %56, i32 0, i32 8
  %88 = load ptr, ptr %21, align 8
  %89 = getelementptr inbounds nuw %"class.ncnn::Mat", ptr %88, i32 0, i32 8
  %90 = load i32, ptr %89, align 4
  store i32 %90, ptr %87, align 4
  %91 = getelementptr inbounds nuw %"class.ncnn::Mat", ptr %56, i32 0, i32 9
  %92 = load ptr, ptr %21, align 8
  %93 = getelementptr inbounds nuw %"class.ncnn::Mat", ptr %92, i32 0, i32 9
  %94 = load i32, ptr %93, align 8
  store i32 %94, ptr %91, align 8
  %95 = getelementptr inbounds nuw %"class.ncnn::Mat", ptr %56, i32 0, i32 10
  %96 = load ptr, ptr %21, align 8
  %97 = getelementptr inbounds nuw %"class.ncnn::Mat", ptr %96, i32 0, i32 10
  %98 = load i64, ptr %97, align 8
  store i64 %98, ptr %95, align 8
  store ptr %56, ptr %14, align 8
  %99 = load ptr, ptr %14, align 8
  %100 = getelementptr inbounds nuw %"class.ncnn::Mat", ptr %99, i32 0, i32 1
  %101 = load ptr, ptr %100, align 8
  %102 = icmp ne ptr %101, null
  br i1 %102, label %103, label %108

103:                                              ; preds = %55
  %104 = getelementptr inbounds nuw %"class.ncnn::Mat", ptr %99, i32 0, i32 1
  %105 = load ptr, ptr %104, align 8
  store i32 1, ptr %15, align 4
  %106 = load i32, ptr %15, align 4
  %107 = atomicrmw add ptr %105, i32 %106 acq_rel, align 4
  store i32 %107, ptr %16, align 4
  br label %108

108:                                              ; preds = %103, %55
  br label %109

109:                                              ; preds = %108
  store i32 1, ptr %31, align 4
  br label %164

110:                                              ; preds = %160
  %111 = landingpad { ptr, i32 }
          cleanup
  %112 = extractvalue { ptr, i32 } %111, 0
  store ptr %112, ptr %29, align 8
  %113 = extractvalue { ptr, i32 } %111, 1
  store i32 %113, ptr %30, align 4
  store ptr %28, ptr %18, align 8
  %114 = load ptr, ptr %18, align 8
  store ptr %114, ptr %11, align 8
  %115 = load ptr, ptr %11, align 8
  %116 = getelementptr inbounds nuw %"class.ncnn::Mat", ptr %115, i32 0, i32 1
  %117 = load ptr, ptr %116, align 8
  %118 = icmp ne ptr %117, null
  br i1 %118, label %119, label %146

119:                                              ; preds = %110
  %120 = getelementptr inbounds nuw %"class.ncnn::Mat", ptr %115, i32 0, i32 1
  %121 = load ptr, ptr %120, align 8
  store i32 -1, ptr %12, align 4
  %122 = load i32, ptr %12, align 4
  %123 = atomicrmw add ptr %121, i32 %122 acq_rel, align 4
  store i32 %123, ptr %13, align 4
  %124 = load i32, ptr %13, align 4
  %125 = icmp eq i32 %124, 1
  br i1 %125, label %126, label %146

126:                                              ; preds = %119
  %127 = getelementptr inbounds nuw %"class.ncnn::Mat", ptr %115, i32 0, i32 4
  %128 = load ptr, ptr %127, align 8
  %129 = icmp ne ptr %128, null
  br i1 %129, label %130, label %138

130:                                              ; preds = %126
  %131 = getelementptr inbounds nuw %"class.ncnn::Mat", ptr %115, i32 0, i32 4
  %132 = load ptr, ptr %131, align 8
  %133 = load ptr, ptr %115, align 8
  %134 = load ptr, ptr %132, align 8
  %135 = getelementptr inbounds ptr, ptr %134, i64 3
  %136 = load ptr, ptr %135, align 8
  invoke void %136(ptr noundef nonnull align 8 dereferenceable(8) %132, ptr noundef %133)
          to label %137 unwind label %156

137:                                              ; preds = %130
  br label %145

138:                                              ; preds = %126
  %139 = load ptr, ptr %115, align 8
  store ptr %139, ptr %6, align 8
  %140 = load ptr, ptr %6, align 8
  %141 = icmp ne ptr %140, null
  br i1 %141, label %142, label %144

142:                                              ; preds = %138
  %143 = load ptr, ptr %6, align 8
  call void @free(ptr noundef %143) #10
  br label %144

144:                                              ; preds = %142, %138
  br label %145

145:                                              ; preds = %144, %137
  br label %146

146:                                              ; preds = %145, %119, %110
  store ptr null, ptr %115, align 8
  %147 = getelementptr inbounds nuw %"class.ncnn::Mat", ptr %115, i32 0, i32 2
  store i64 0, ptr %147, align 8
  %148 = getelementptr inbounds nuw %"class.ncnn::Mat", ptr %115, i32 0, i32 3
  store i32 0, ptr %148, align 8
  %149 = getelementptr inbounds nuw %"class.ncnn::Mat", ptr %115, i32 0, i32 5
  store i32 0, ptr %149, align 8
  %150 = getelementptr inbounds nuw %"class.ncnn::Mat", ptr %115, i32 0, i32 6
  store i32 0, ptr %150, align 4
  %151 = getelementptr inbounds nuw %"class.ncnn::Mat", ptr %115, i32 0, i32 7
  store i32 0, ptr %151, align 8
  %152 = getelementptr inbounds nuw %"class.ncnn::Mat", ptr %115, i32 0, i32 8
  store i32 0, ptr %152, align 4
  %153 = getelementptr inbounds nuw %"class.ncnn::Mat", ptr %115, i32 0, i32 9
  store i32 0, ptr %153, align 8
  %154 = getelementptr inbounds nuw %"class.ncnn::Mat", ptr %115, i32 0, i32 10
  store i64 0, ptr %154, align 8
  %155 = getelementptr inbounds nuw %"class.ncnn::Mat", ptr %115, i32 0, i32 1
  store ptr null, ptr %155, align 8
  br label %159

156:                                              ; preds = %130
  %157 = landingpad { ptr, i32 }
          catch ptr null
  %158 = extractvalue { ptr, i32 } %157, 0
  call void @__clang_call_terminate(ptr %158) #12
  unreachable

159:                                              ; preds = %146
  br label %211

160:                                              ; preds = %54
  %161 = load i32, ptr %25, align 4
  %162 = load i32, ptr %26, align 4
  invoke void @_ZNK4ncnn3Mat7reshapeEiiPNS_9AllocatorE(ptr dead_on_unwind writable sret(%"class.ncnn::Mat") align 8 %0, ptr noundef nonnull align 8 dereferenceable(72) %28, i32 noundef %161, i32 noundef %162, ptr noundef null)
          to label %163 unwind label %110

163:                                              ; preds = %160
  store i32 1, ptr %31, align 4
  br label %164

164:                                              ; preds = %163, %109
  store ptr %28, ptr %19, align 8
  %165 = load ptr, ptr %19, align 8
  store ptr %165, ptr %8, align 8
  %166 = load ptr, ptr %8, align 8
  %167 = getelementptr inbounds nuw %"class.ncnn::Mat", ptr %166, i32 0, i32 1
  %168 = load ptr, ptr %167, align 8
  %169 = icmp ne ptr %168, null
  br i1 %169, label %170, label %197

170:                                              ; preds = %164
  %171 = getelementptr inbounds nuw %"class.ncnn::Mat", ptr %166, i32 0, i32 1
  %172 = load ptr, ptr %171, align 8
  store i32 -1, ptr %9, align 4
  %173 = load i32, ptr %9, align 4
  %174 = atomicrmw add ptr %172, i32 %173 acq_rel, align 4
  store i32 %174, ptr %10, align 4
  %175 = load i32, ptr %10, align 4
  %176 = icmp eq i32 %175, 1
  br i1 %176, label %177, label %197

177:                                              ; preds = %170
  %178 = getelementptr inbounds nuw %"class.ncnn::Mat", ptr %166, i32 0, i32 4
  %179 = load ptr, ptr %178, align 8
  %180 = icmp ne ptr %179, null
  br i1 %180, label %181, label %189

181:                                              ; preds = %177
  %182 = getelementptr inbounds nuw %"class.ncnn::Mat", ptr %166, i32 0, i32 4
  %183 = load ptr, ptr %182, align 8
  %184 = load ptr, ptr %166, align 8
  %185 = load ptr, ptr %183, align 8
  %186 = getelementptr inbounds ptr, ptr %185, i64 3
  %187 = load ptr, ptr %186, align 8
  invoke void %187(ptr noundef nonnull align 8 dereferenceable(8) %183, ptr noundef %184)
          to label %188 unwind label %207

188:                                              ; preds = %181
  br label %196

189:                                              ; preds = %177
  %190 = load ptr, ptr %166, align 8
  store ptr %190, ptr %7, align 8
  %191 = load ptr, ptr %7, align 8
  %192 = icmp ne ptr %191, null
  br i1 %192, label %193, label %195

193:                                              ; preds = %189
  %194 = load ptr, ptr %7, align 8
  call void @free(ptr noundef %194) #10
  br label %195

195:                                              ; preds = %193, %189
  br label %196

196:                                              ; preds = %195, %188
  br label %197

197:                                              ; preds = %196, %170, %164
  store ptr null, ptr %166, align 8
  %198 = getelementptr inbounds nuw %"class.ncnn::Mat", ptr %166, i32 0, i32 2
  store i64 0, ptr %198, align 8
  %199 = getelementptr inbounds nuw %"class.ncnn::Mat", ptr %166, i32 0, i32 3
  store i32 0, ptr %199, align 8
  %200 = getelementptr inbounds nuw %"class.ncnn::Mat", ptr %166, i32 0, i32 5
  store i32 0, ptr %200, align 8
  %201 = getelementptr inbounds nuw %"class.ncnn::Mat", ptr %166, i32 0, i32 6
  store i32 0, ptr %201, align 4
  %202 = getelementptr inbounds nuw %"class.ncnn::Mat", ptr %166, i32 0, i32 7
  store i32 0, ptr %202, align 8
  %203 = getelementptr inbounds nuw %"class.ncnn::Mat", ptr %166, i32 0, i32 8
  store i32 0, ptr %203, align 4
  %204 = getelementptr inbounds nuw %"class.ncnn::Mat", ptr %166, i32 0, i32 9
  store i32 0, ptr %204, align 8
  %205 = getelementptr inbounds nuw %"class.ncnn::Mat", ptr %166, i32 0, i32 10
  store i64 0, ptr %205, align 8
  %206 = getelementptr inbounds nuw %"class.ncnn::Mat", ptr %166, i32 0, i32 1
  store ptr null, ptr %206, align 8
  br label %210

207:                                              ; preds = %181
  %208 = landingpad { ptr, i32 }
          catch ptr null
  %209 = extractvalue { ptr, i32 } %208, 0
  call void @__clang_call_terminate(ptr %209) #12
  unreachable

210:                                              ; preds = %197
  ret void

211:                                              ; preds = %159
  %212 = load ptr, ptr %29, align 8
  %213 = load i32, ptr %30, align 4
  %214 = insertvalue { ptr, i32 } poison, ptr %212, 0
  %215 = insertvalue { ptr, i32 } %214, i32 %213, 1
  resume { ptr, i32 } %215
}