; Function Attrs: mustprogress uwtable
define hidden void @_ZNK4ncnn8ModelBin4loadEiii(ptr dead_on_unwind noalias writable sret(%"class.ncnn::Mat") align 8 %0, ptr noundef nonnull align 8 dereferenceable(8) %1, i32 noundef %2, i32 noundef %3, i32 noundef %4) unnamed_addr #4 align 2 personality ptr @__gxx_personality_v0 {
  %6 = alloca %"class.ncnn::Mat", align 8
  %7 = mul nsw i32 %3, %2
  %8 = load ptr, ptr %1, align 8
  %9 = getelementptr inbounds i8, ptr %8, i64 16
  %10 = load ptr, ptr %9, align 8
  call void %10(ptr dead_on_unwind nonnull writable sret(%"class.ncnn::Mat") align 8 %6, ptr noundef nonnull align 8 dereferenceable(8) %1, i32 noundef %7, i32 noundef %4)
  %11 = load ptr, ptr %6, align 8
  %12 = icmp eq ptr %11, null
  br i1 %12, label %..critedge_crit_edge, label %13

..critedge_crit_edge:                             ; preds = %5
  %.phi.trans.insert = getelementptr inbounds nuw i8, ptr %6, i64 56
  %.pre = load i32, ptr %.phi.trans.insert, align 8
  %.phi.trans.insert47 = getelementptr inbounds nuw i8, ptr %6, i64 64
  %.pre48 = load i64, ptr %.phi.trans.insert47, align 8
  br label %.critedge

13:                                               ; preds = %5
  %14 = getelementptr inbounds nuw i8, ptr %6, i64 64
  %15 = load i64, ptr %14, align 8
  %16 = getelementptr inbounds nuw i8, ptr %6, i64 56
  %17 = load i32, ptr %16, align 8
  %18 = sext i32 %17 to i64
  %19 = mul i64 %15, %18
  %20 = icmp eq i64 %19, 0
  br i1 %20, label %.critedge, label %72

.critedge:                                        ; preds = %..critedge_crit_edge, %13
  %21 = phi i64 [ %.pre48, %..critedge_crit_edge ], [ %15, %13 ]
  %22 = phi i32 [ %.pre, %..critedge_crit_edge ], [ %17, %13 ]
  store ptr %11, ptr %0, align 8
  %23 = getelementptr inbounds nuw i8, ptr %0, i64 8
  %24 = getelementptr inbounds nuw i8, ptr %6, i64 8
  %25 = load ptr, ptr %24, align 8
  store ptr %25, ptr %23, align 8
  %26 = getelementptr inbounds nuw i8, ptr %0, i64 16
  %27 = getelementptr inbounds nuw i8, ptr %6, i64 16
  %28 = load i64, ptr %27, align 8
  store i64 %28, ptr %26, align 8
  %29 = getelementptr inbounds nuw i8, ptr %0, i64 24
  %30 = getelementptr inbounds nuw i8, ptr %6, i64 24
  %31 = load i32, ptr %30, align 8
  store i32 %31, ptr %29, align 8
  %32 = getelementptr inbounds nuw i8, ptr %0, i64 32
  %33 = getelementptr inbounds nuw i8, ptr %6, i64 32
  %34 = load ptr, ptr %33, align 8
  store ptr %34, ptr %32, align 8
  %35 = getelementptr inbounds nuw i8, ptr %0, i64 40
  %36 = getelementptr inbounds nuw i8, ptr %6, i64 40
  %37 = load i32, ptr %36, align 8
  store i32 %37, ptr %35, align 8
  %38 = getelementptr inbounds nuw i8, ptr %0, i64 44
  %39 = getelementptr inbounds nuw i8, ptr %6, i64 44
  %40 = load i32, ptr %39, align 4
  store i32 %40, ptr %38, align 4
  %41 = getelementptr inbounds nuw i8, ptr %0, i64 48
  %42 = getelementptr inbounds nuw i8, ptr %6, i64 48
  %43 = load i32, ptr %42, align 8
  store i32 %43, ptr %41, align 8
  %44 = getelementptr inbounds nuw i8, ptr %0, i64 52
  %45 = getelementptr inbounds nuw i8, ptr %6, i64 52
  %46 = load i32, ptr %45, align 4
  store i32 %46, ptr %44, align 4
  %47 = getelementptr inbounds nuw i8, ptr %0, i64 56
  store i32 %22, ptr %47, align 8
  %48 = getelementptr inbounds nuw i8, ptr %0, i64 64
  store i64 %21, ptr %48, align 8
  %.not43 = icmp eq ptr %25, null
  br i1 %.not43, label %73, label %49

49:                                               ; preds = %.critedge
  %50 = atomicrmw add ptr %25, i32 1 acq_rel, align 4
  br label %73

51:                                               ; preds = %72
  %52 = landingpad { ptr, i32 }
          cleanup
  %53 = getelementptr inbounds nuw i8, ptr %6, i64 8
  %54 = load ptr, ptr %53, align 8
  %.not = icmp eq ptr %54, null
  br i1 %.not, label %68, label %55

55:                                               ; preds = %51
  %56 = atomicrmw add ptr %54, i32 -1 acq_rel, align 4
  %57 = icmp eq i32 %56, 1
  br i1 %57, label %58, label %68

58:                                               ; preds = %55
  %59 = getelementptr inbounds nuw i8, ptr %6, i64 32
  %60 = load ptr, ptr %59, align 8
  %.not41 = icmp eq ptr %60, null
  %61 = load ptr, ptr %6, align 8
  br i1 %.not41, label %66, label %62

62:                                               ; preds = %58
  %63 = load ptr, ptr %60, align 8
  %64 = getelementptr inbounds i8, ptr %63, i64 24
  %65 = load ptr, ptr %64, align 8
  invoke void %65(ptr noundef nonnull align 8 dereferenceable(8) %60, ptr noundef %61)
          to label %68 unwind label %69

66:                                               ; preds = %58
  %.not42 = icmp eq ptr %61, null
  br i1 %.not42, label %68, label %67

67:                                               ; preds = %66
  call void @free(ptr noundef nonnull %61) #17
  br label %68

68:                                               ; preds = %62, %67, %66, %55, %51
  resume { ptr, i32 } %52

69:                                               ; preds = %62
  %70 = landingpad { ptr, i32 }
          catch ptr null
  %71 = extractvalue { ptr, i32 } %70, 0
  call void @__clang_call_terminate(ptr %71) #18
  unreachable

72:                                               ; preds = %13
  invoke void @_ZNK4ncnn3Mat7reshapeEiiPNS_9AllocatorE(ptr dead_on_unwind writable sret(%"class.ncnn::Mat") align 8 %0, ptr noundef nonnull align 8 dereferenceable(72) %6, i32 noundef %2, i32 noundef %3, ptr noundef null)
          to label %73 unwind label %51

73:                                               ; preds = %72, %49, %.critedge
  %74 = getelementptr inbounds nuw i8, ptr %6, i64 8
  %75 = load ptr, ptr %74, align 8
  %.not44 = icmp eq ptr %75, null
  br i1 %.not44, label %89, label %76

76:                                               ; preds = %73
  %77 = atomicrmw add ptr %75, i32 -1 acq_rel, align 4
  %78 = icmp eq i32 %77, 1
  br i1 %78, label %79, label %89

79:                                               ; preds = %76
  %80 = getelementptr inbounds nuw i8, ptr %6, i64 32
  %81 = load ptr, ptr %80, align 8
  %.not45 = icmp eq ptr %81, null
  %82 = load ptr, ptr %6, align 8
  br i1 %.not45, label %87, label %83

83:                                               ; preds = %79
  %84 = load ptr, ptr %81, align 8
  %85 = getelementptr inbounds i8, ptr %84, i64 24
  %86 = load ptr, ptr %85, align 8
  invoke void %86(ptr noundef nonnull align 8 dereferenceable(8) %81, ptr noundef %82)
          to label %89 unwind label %90

87:                                               ; preds = %79
  %.not46 = icmp eq ptr %82, null
  br i1 %.not46, label %89, label %88

88:                                               ; preds = %87
  call void @free(ptr noundef nonnull %82) #17
  br label %89

89:                                               ; preds = %83, %88, %87, %76, %73
  ret void

90:                                               ; preds = %83
  %91 = landingpad { ptr, i32 }
          catch ptr null
  %92 = extractvalue { ptr, i32 } %91, 0
  call void @__clang_call_terminate(ptr %92) #18
  unreachable
}